target datalayout = "e-m:e-p270:32:32-p271:32:32-p272:64:64-i64:64-i128:128-f80:128-n8:16:32:64-S128"
target triple = "x86_64-pc-linux-gnu"

%struct.expert_field = type { i32, i32 }

@hf_msg_addrv2_count8 = internal global i32 0, align 4
@hf_msg_addrv2_count16 = internal global i32 0, align 4
@hf_msg_addrv2_count32 = internal global i32 0, align 4
@hf_msg_addrv2_count64 = internal global i32 0, align 4
@hf_msg_addrv2_item = internal global i32 0, align 4
@hf_msg_addrv2_timestamp = internal global i32 0, align 4
@hf_msg_addrv2_services = internal global i32 0, align 4
@hf_msg_addrv2_network = internal global i32 0, align 4
@hf_msg_addrv2_address_ipv4 = internal global i32 0, align 4
@hf_msg_addrv2_address_ipv6 = internal global i32 0, align 4
@hf_msg_addrv2_address_other = internal global i32 0, align 4
@hf_msg_addrv2_port = internal global i32 0, align 4
@hf_bitcoin_msg_addrv2 = internal global i32 0, align 4
@ett_bitcoin_msg = internal global i32 0, align 4
@ett_services = internal global i32 0, align 4
@ett_addr_list = internal global i32 0, align 4
@ei_bitcoin_address_length = internal global %struct.expert_field zeroinitializer, align 4
@services_hf_flags = internal constant [9 x ptr] [ptr @hf_services_network, ptr @hf_services_getutxo, ptr @hf_services_bloom, ptr @hf_services_witness, ptr @hf_services_xthin, ptr @hf_services_compactfilters, ptr @hf_services_networklimited, ptr @hf_services_p2pv2, ptr null], align 16

; Function Attrs: null_pointer_is_valid sspstrong uwtable
define internal void @add_varint_item(ptr noundef %0, ptr noundef %1, i32 noundef %2, i32 noundef %3, i32 noundef %4, i32 noundef %5, i32 noundef %6, i32 noundef %7) #0 {
  %9 = alloca ptr, align 8
  %10 = alloca ptr, align 8
  %11 = alloca i32, align 4
  %12 = alloca i32, align 4
  %13 = alloca i32, align 4
  %14 = alloca i32, align 4
  %15 = alloca i32, align 4
  %16 = alloca i32, align 4
  store ptr %0, ptr %9, align 8
  store ptr %1, ptr %10, align 8
  store i32 %2, ptr %11, align 4
  store i32 %3, ptr %12, align 4
  store i32 %4, ptr %13, align 4
  store i32 %5, ptr %14, align 4
  store i32 %6, ptr %15, align 4
  store i32 %7, ptr %16, align 4
  %17 = load i32, ptr %12, align 4
  switch i32 %17, label %45 [
    i32 1, label %18
    i32 3, label %24
    i32 5, label %31
    i32 9, label %38
  ]

18:                                               ; preds = %8
  %19 = load ptr, ptr %9, align 8
  %20 = load i32, ptr %13, align 4
  %21 = load ptr, ptr %10, align 8
  %22 = load i32, ptr %11, align 4
  %23 = call ptr @proto_tree_add_item(ptr noundef %19, i32 noundef %20, ptr noundef %21, i32 noundef %22, i32 noundef 1, i32 noundef -2147483648)
  br label %45

24:                                               ; preds = %8
  %25 = load ptr, ptr %9, align 8
  %26 = load i32, ptr %14, align 4
  %27 = load ptr, ptr %10, align 8
  %28 = load i32, ptr %11, align 4
  %29 = add i32 %28, 1
  %30 = call ptr @proto_tree_add_item(ptr noundef %25, i32 noundef %26, ptr noundef %27, i32 noundef %29, i32 noundef 2, i32 noundef -2147483648)
  br label %45

31:                                               ; preds = %8
  %32 = load ptr, ptr %9, align 8
  %33 = load i32, ptr %15, align 4
  %34 = load ptr, ptr %10, align 8
  %35 = load i32, ptr %11, align 4
  %36 = add i32 %35, 1
  %37 = call ptr @proto_tree_add_item(ptr noundef %32, i32 noundef %33, ptr noundef %34, i32 noundef %36, i32 noundef 4, i32 noundef -2147483648)
  br label %45

38:                                               ; preds = %8
  %39 = load ptr, ptr %9, align 8
  %40 = load i32, ptr %16, align 4
  %41 = load ptr, ptr %10, align 8
  %42 = load i32, ptr %11, align 4
  %43 = add i32 %42, 1
  %44 = call ptr @proto_tree_add_item(ptr noundef %39, i32 noundef %40, ptr noundef %41, i32 noundef %43, i32 noundef 8, i32 noundef -2147483648)
  br label %45

45:                                               ; preds = %8, %38, %31, %24, %18
  ret void
}

; Function Attrs: null_pointer_is_valid sspstrong uwtable
define internal void @get_varint(ptr noundef %0, i32 noundef %1, ptr noundef %2, ptr noundef %3) #0 {
  %5 = alloca ptr, align 8
  %6 = alloca i32, align 4
  %7 = alloca ptr, align 8
  %8 = alloca ptr, align 8
  %9 = alloca i32, align 4
  %10 = alloca i32, align 4
  store ptr %0, ptr %5, align 8
  store i32 %1, ptr %6, align 4
  store ptr %2, ptr %7, align 8
  store ptr %3, ptr %8, align 8
  call void @llvm.lifetime.start.p0(i64 4, ptr %9) #4
  %11 = load ptr, ptr %5, align 8
  %12 = load i32, ptr %6, align 4
  %13 = call zeroext i8 @tvb_get_uint8(ptr noundef %11, i32 noundef %12)
  %14 = zext i8 %13 to i32
  store i32 %14, ptr %9, align 4
  %15 = load i32, ptr %9, align 4
  %16 = icmp ult i32 %15, 253
  br i1 %16, label %17, label %22

17:                                               ; preds = %4
  %18 = load ptr, ptr %7, align 8
  store i32 1, ptr %18, align 4
  %19 = load i32, ptr %9, align 4
  %20 = zext i32 %19 to i64
  %21 = load ptr, ptr %8, align 8
  store i64 %20, ptr %21, align 8
  store i32 1, ptr %10, align 4
  br label %51

22:                                               ; preds = %4
  %23 = load i32, ptr %9, align 4
  %24 = icmp eq i32 %23, 253
  br i1 %24, label %25, label %33

25:                                               ; preds = %22
  %26 = load ptr, ptr %7, align 8
  store i32 3, ptr %26, align 4
  %27 = load ptr, ptr %5, align 8
  %28 = load i32, ptr %6, align 4
  %29 = add i32 %28, 1
  %30 = call zeroext i16 @tvb_get_letohs(ptr noundef %27, i32 noundef %29)
  %31 = zext i16 %30 to i64
  %32 = load ptr, ptr %8, align 8
  store i64 %31, ptr %32, align 8
  store i32 1, ptr %10, align 4
  br label %51

33:                                               ; preds = %22
  %34 = load i32, ptr %9, align 4
  %35 = icmp eq i32 %34, 254
  br i1 %35, label %36, label %44

36:                                               ; preds = %33
  %37 = load ptr, ptr %7, align 8
  store i32 5, ptr %37, align 4
  %38 = load ptr, ptr %5, align 8
  %39 = load i32, ptr %6, align 4
  %40 = add i32 %39, 1
  %41 = call i32 @tvb_get_letohl(ptr noundef %38, i32 noundef %40)
  %42 = zext i32 %41 to i64
  %43 = load ptr, ptr %8, align 8
  store i64 %42, ptr %43, align 8
  store i32 1, ptr %10, align 4
  br label %51

44:                                               ; preds = %33
  %45 = load ptr, ptr %7, align 8
  store i32 9, ptr %45, align 4
  %46 = load ptr, ptr %5, align 8
  %47 = load i32, ptr %6, align 4
  %48 = add i32 %47, 1
  %49 = call i64 @tvb_get_letoh64(ptr noundef %46, i32 noundef %48)
  %50 = load ptr, ptr %8, align 8
  store i64 %49, ptr %50, align 8
  store i32 1, ptr %10, align 4
  br label %51

51:                                               ; preds = %44, %36, %25, %17
  call void @llvm.lifetime.end.p0(i64 4, ptr %9) #4
  ret void
}

; Function Attrs: null_pointer_is_valid sspstrong uwtable
define internal i32 @dissect_bitcoin_msg_addrv2(ptr noundef %0, ptr noundef %1, ptr noundef %2, ptr noundef %3) #0 {
  %5 = alloca ptr, align 8
  %6 = alloca ptr, align 8
  %7 = alloca ptr, align 8
  %8 = alloca ptr, align 8
  %9 = alloca ptr, align 8
  %10 = alloca i32, align 4
  %11 = alloca i64, align 8
  %12 = alloca i32, align 4
  %13 = alloca ptr, align 8
  %14 = alloca ptr, align 8
  %15 = alloca ptr, align 8
  %16 = alloca i64, align 8
  %17 = alloca i8, align 1
  %18 = alloca i64, align 8
  store ptr %0, ptr %5, align 8
  store ptr %1, ptr %6, align 8
  store ptr %2, ptr %7, align 8
  store ptr %3, ptr %8, align 8
  call void @llvm.lifetime.start.p0(i64 8, ptr %9) #4
  call void @llvm.lifetime.start.p0(i64 4, ptr %10) #4
  call void @llvm.lifetime.start.p0(i64 8, ptr %11) #4
  call void @llvm.lifetime.start.p0(i64 4, ptr %12) #4
  store i32 0, ptr %12, align 4
  %19 = load ptr, ptr %7, align 8
  %20 = load i32, ptr @hf_bitcoin_msg_addrv2, align 4
  %21 = load ptr, ptr %5, align 8
  %22 = load i32, ptr %12, align 4
  %23 = call ptr @proto_tree_add_item(ptr noundef %19, i32 noundef %20, ptr noundef %21, i32 noundef %22, i32 noundef -1, i32 noundef 0)
  store ptr %23, ptr %9, align 8
  %24 = load ptr, ptr %9, align 8
  %25 = load i32, ptr @ett_bitcoin_msg, align 4
  %26 = call ptr @proto_item_add_subtree(ptr noundef %24, i32 noundef %25)
  store ptr %26, ptr %7, align 8
  %27 = load ptr, ptr %5, align 8
  %28 = load i32, ptr %12, align 4
  call void @get_varint(ptr noundef %27, i32 noundef %28, ptr noundef %10, ptr noundef %11)
  %29 = load ptr, ptr %7, align 8
  %30 = load ptr, ptr %5, align 8
  %31 = load i32, ptr %12, align 4
  %32 = load i32, ptr %10, align 4
  %33 = load i32, ptr @hf_msg_addrv2_count8, align 4
  %34 = load i32, ptr @hf_msg_addrv2_count16, align 4
  %35 = load i32, ptr @hf_msg_addrv2_count32, align 4
  %36 = load i32, ptr @hf_msg_addrv2_count64, align 4
  call void @add_varint_item(ptr noundef %29, ptr noundef %30, i32 noundef %31, i32 noundef %32, i32 noundef %33, i32 noundef %34, i32 noundef %35, i32 noundef %36)
  %37 = load i32, ptr %10, align 4
  %38 = load i32, ptr %12, align 4
  %39 = add i32 %38, %37
  store i32 %39, ptr %12, align 4
  br label %40

40:                                               ; preds = %151, %4
  %41 = load i64, ptr %11, align 8
  %42 = icmp ugt i64 %41, 0
  br i1 %42, label %43, label %154

43:                                               ; preds = %40
  call void @llvm.lifetime.start.p0(i64 8, ptr %13) #4
  call void @llvm.lifetime.start.p0(i64 8, ptr %14) #4
  call void @llvm.lifetime.start.p0(i64 8, ptr %15) #4
  call void @llvm.lifetime.start.p0(i64 8, ptr %16) #4
  call void @llvm.lifetime.start.p0(i64 1, ptr %17) #4
  call void @llvm.lifetime.start.p0(i64 8, ptr %18) #4
  %44 = load ptr, ptr %7, align 8
  %45 = load i32, ptr @hf_msg_addrv2_item, align 4
  %46 = load ptr, ptr %5, align 8
  %47 = load i32, ptr %12, align 4
  %48 = call ptr @proto_tree_add_item(ptr noundef %44, i32 noundef %45, ptr noundef %46, i32 noundef %47, i32 noundef -1, i32 noundef 0)
  store ptr %48, ptr %13, align 8
  %49 = load ptr, ptr %13, align 8
  %50 = load i32, ptr @ett_addr_list, align 4
  %51 = call ptr @proto_item_add_subtree(ptr noundef %49, i32 noundef %50)
  store ptr %51, ptr %15, align 8
  %52 = load ptr, ptr %15, align 8
  %53 = load i32, ptr @hf_msg_addrv2_timestamp, align 4
  %54 = load ptr, ptr %5, align 8
  %55 = load i32, ptr %12, align 4
  %56 = call ptr @proto_tree_add_item(ptr noundef %52, i32 noundef %53, ptr noundef %54, i32 noundef %55, i32 noundef 4, i32 noundef -2147483630)
  %57 = load i32, ptr %12, align 4
  %58 = add i32 %57, 4
  store i32 %58, ptr %12, align 4
  %59 = load ptr, ptr %5, align 8
  %60 = load i32, ptr %12, align 4
  call void @get_varint(ptr noundef %59, i32 noundef %60, ptr noundef %10, ptr noundef %16)
  %61 = load ptr, ptr %15, align 8
  %62 = load ptr, ptr %5, align 8
  %63 = load i32, ptr %12, align 4
  %64 = load i32, ptr @hf_msg_addrv2_services, align 4
  %65 = load i32, ptr @ett_services, align 4
  %66 = load i64, ptr %16, align 8
  %67 = call ptr @proto_tree_add_bitmask_value(ptr noundef %61, ptr noundef %62, i32 noundef %63, i32 noundef %64, i32 noundef %65, ptr noundef @services_hf_flags, i64 noundef %66)
  store ptr %67, ptr %14, align 8
  %68 = load ptr, ptr %14, align 8
  %69 = load i32, ptr %10, align 4
  call void @proto_item_set_len(ptr noundef %68, i32 noundef %69)
  %70 = load i32, ptr %10, align 4
  %71 = load i32, ptr %12, align 4
  %72 = add i32 %71, %70
  store i32 %72, ptr %12, align 4
  %73 = load ptr, ptr %5, align 8
  %74 = load i32, ptr %12, align 4
  %75 = call zeroext i8 @tvb_get_uint8(ptr noundef %73, i32 noundef %74)
  store i8 %75, ptr %17, align 1
  %76 = load ptr, ptr %15, align 8
  %77 = load i32, ptr @hf_msg_addrv2_network, align 4
  %78 = load ptr, ptr %5, align 8
  %79 = load i32, ptr %12, align 4
  %80 = call ptr @proto_tree_add_item(ptr noundef %76, i32 noundef %77, ptr noundef %78, i32 noundef %79, i32 noundef 1, i32 noundef -2147483648)
  %81 = load i32, ptr %12, align 4
  %82 = add i32 %81, 1
  store i32 %82, ptr %12, align 4
  %83 = load ptr, ptr %5, align 8
  %84 = load i32, ptr %12, align 4
  call void @get_varint(ptr noundef %83, i32 noundef %84, ptr noundef %10, ptr noundef %18)
  %85 = load i32, ptr %10, align 4
  %86 = load i32, ptr %12, align 4
  %87 = add i32 %86, %85
  store i32 %87, ptr %12, align 4
  %88 = load i8, ptr %17, align 1
  %89 = zext i8 %88 to i32
  switch i32 %89, label %128 [
    i32 1, label %90
    i32 2, label %109
  ]

90:                                               ; preds = %43
  %91 = load ptr, ptr %15, align 8
  %92 = load i32, ptr @hf_msg_addrv2_address_ipv4, align 4
  %93 = load ptr, ptr %5, align 8
  %94 = load i32, ptr %12, align 4
  %95 = load i64, ptr %18, align 8
  %96 = trunc i64 %95 to i32
  %97 = call ptr @proto_tree_add_item(ptr noundef %91, i32 noundef %92, ptr noundef %93, i32 noundef %94, i32 noundef %96, i32 noundef 0)
  %98 = load i64, ptr %18, align 8
  %99 = icmp ne i64 %98, 4
  br i1 %99, label %100, label %108

100:                                              ; preds = %90
  %101 = load ptr, ptr %15, align 8
  %102 = load ptr, ptr %6, align 8
  %103 = load ptr, ptr %5, align 8
  %104 = load i32, ptr %12, align 4
  %105 = load i64, ptr %18, align 8
  %106 = trunc i64 %105 to i32
  %107 = call ptr @proto_tree_add_expert(ptr noundef %101, ptr noundef %102, ptr noundef @ei_bitcoin_address_length, ptr noundef %103, i32 noundef %104, i32 noundef %106)
  br label %108

108:                                              ; preds = %100, %90
  br label %136

109:                                              ; preds = %43
  %110 = load ptr, ptr %15, align 8
  %111 = load i32, ptr @hf_msg_addrv2_address_ipv6, align 4
  %112 = load ptr, ptr %5, align 8
  %113 = load i32, ptr %12, align 4
  %114 = load i64, ptr %18, align 8
  %115 = trunc i64 %114 to i32
  %116 = call ptr @proto_tree_add_item(ptr noundef %110, i32 noundef %111, ptr noundef %112, i32 noundef %113, i32 noundef %115, i32 noundef 0)
  %117 = load i64, ptr %18, align 8
  %118 = icmp ne i64 %117, 16
  br i1 %118, label %119, label %127

119:                                              ; preds = %109
  %120 = load ptr, ptr %15, align 8
  %121 = load ptr, ptr %6, align 8
  %122 = load ptr, ptr %5, align 8
  %123 = load i32, ptr %12, align 4
  %124 = load i64, ptr %18, align 8
  %125 = trunc i64 %124 to i32
  %126 = call ptr @proto_tree_add_expert(ptr noundef %120, ptr noundef %121, ptr noundef @ei_bitcoin_address_length, ptr noundef %122, i32 noundef %123, i32 noundef %125)
  br label %127

127:                                              ; preds = %119, %109
  br label %136

128:                                              ; preds = %43
  %129 = load ptr, ptr %15, align 8
  %130 = load i32, ptr @hf_msg_addrv2_address_other, align 4
  %131 = load ptr, ptr %5, align 8
  %132 = load i32, ptr %12, align 4
  %133 = load i64, ptr %18, align 8
  %134 = trunc i64 %133 to i32
  %135 = call ptr @proto_tree_add_item(ptr noundef %129, i32 noundef %130, ptr noundef %131, i32 noundef %132, i32 noundef %134, i32 noundef 0)
  br label %136

136:                                              ; preds = %128, %127, %108
  %137 = load i64, ptr %18, align 8
  %138 = trunc i64 %137 to i32
  %139 = load i32, ptr %12, align 4
  %140 = add i32 %139, %138
  store i32 %140, ptr %12, align 4
  %141 = load ptr, ptr %15, align 8
  %142 = load i32, ptr @hf_msg_addrv2_port, align 4
  %143 = load ptr, ptr %5, align 8
  %144 = load i32, ptr %12, align 4
  %145 = call ptr @proto_tree_add_item(ptr noundef %141, i32 noundef %142, ptr noundef %143, i32 noundef %144, i32 noundef 2, i32 noundef 0)
  %146 = load i32, ptr %12, align 4
  %147 = add i32 %146, 2
  store i32 %147, ptr %12, align 4
  %148 = load ptr, ptr %13, align 8
  %149 = load ptr, ptr %5, align 8
  %150 = load i32, ptr %12, align 4
  call void @proto_item_set_end(ptr noundef %148, ptr noundef %149, i32 noundef %150)
  call void @llvm.lifetime.end.p0(i64 8, ptr %18) #4
  call void @llvm.lifetime.end.p0(i64 1, ptr %17) #4
  call void @llvm.lifetime.end.p0(i64 8, ptr %16) #4
  call void @llvm.lifetime.end.p0(i64 8, ptr %15) #4
  call void @llvm.lifetime.end.p0(i64 8, ptr %14) #4
  call void @llvm.lifetime.end.p0(i64 8, ptr %13) #4
  br label %151

151:                                              ; preds = %136
  %152 = load i64, ptr %11, align 8
  %153 = add i64 %152, -1
  store i64 %153, ptr %11, align 8
  br label %40, !llvm.loop !10

154:                                              ; preds = %40
  %155 = load i32, ptr %12, align 4
  call void @llvm.lifetime.end.p0(i64 4, ptr %12) #4
  call void @llvm.lifetime.end.p0(i64 8, ptr %11) #4
  call void @llvm.lifetime.end.p0(i64 4, ptr %10) #4
  call void @llvm.lifetime.end.p0(i64 8, ptr %9) #4
  ret i32 %155
}