; Function Attrs: null_pointer_is_valid sspstrong uwtable
define internal noundef i32 @dissect_bitcoin_msg_addrv2(ptr noundef %0, ptr noundef %1, ptr noundef %2, ptr readnone captures(none) %3) #0 {
  %5 = load i32, ptr @hf_bitcoin_msg_addrv2, align 4
  %6 = tail call ptr @proto_tree_add_item(ptr noundef %2, i32 noundef %5, ptr noundef %0, i32 noundef 0, i32 noundef -1, i32 noundef 0)
  %7 = load i32, ptr @ett_bitcoin_msg, align 4
  %8 = tail call ptr @proto_item_add_subtree(ptr noundef %6, i32 noundef %7)
  %9 = tail call zeroext i8 @tvb_get_uint8(ptr noundef %0, i32 noundef 0)
  %10 = icmp ult i8 %9, -3
  br i1 %10, label %12, label %11

11:                                               ; preds = %4
  switch i8 %9, label %26 [
    i8 -3, label %16
    i8 -2, label %21
  ]

12:                                               ; preds = %4
  %13 = zext i8 %9 to i64
  %14 = load i32, ptr @hf_msg_addrv2_count8, align 4
  %15 = tail call ptr @proto_tree_add_item(ptr noundef %8, i32 noundef %14, ptr noundef %0, i32 noundef 0, i32 noundef 1, i32 noundef -2147483648)
  br label %add_varint_item.exit

16:                                               ; preds = %11
  %17 = tail call zeroext i16 @tvb_get_letohs(ptr noundef %0, i32 noundef 1)
  %18 = zext i16 %17 to i64
  %19 = load i32, ptr @hf_msg_addrv2_count16, align 4
  %20 = tail call ptr @proto_tree_add_item(ptr noundef %8, i32 noundef %19, ptr noundef %0, i32 noundef 1, i32 noundef 2, i32 noundef -2147483648)
  br label %add_varint_item.exit

21:                                               ; preds = %11
  %22 = tail call i32 @tvb_get_letohl(ptr noundef %0, i32 noundef 1)
  %23 = zext i32 %22 to i64
  %24 = load i32, ptr @hf_msg_addrv2_count32, align 4
  %25 = tail call ptr @proto_tree_add_item(ptr noundef %8, i32 noundef %24, ptr noundef %0, i32 noundef 1, i32 noundef 4, i32 noundef -2147483648)
  br label %add_varint_item.exit

26:                                               ; preds = %11
  %27 = tail call i64 @tvb_get_letoh64(ptr noundef %0, i32 noundef 1)
  %28 = load i32, ptr @hf_msg_addrv2_count64, align 4
  %29 = tail call ptr @proto_tree_add_item(ptr noundef %8, i32 noundef %28, ptr noundef %0, i32 noundef 1, i32 noundef 8, i32 noundef -2147483648)
  br label %add_varint_item.exit

add_varint_item.exit:                             ; preds = %12, %16, %21, %26
  %.sink.i88 = phi i64 [ %13, %12 ], [ %18, %16 ], [ %23, %21 ], [ %27, %26 ]
  %.08186 = phi i32 [ 1, %12 ], [ 3, %16 ], [ 5, %21 ], [ 9, %26 ]
  %.not99 = icmp eq i64 %.sink.i88, 0
  br i1 %.not99, label %._crit_edge, label %.lr.ph

.lr.ph:                                           ; preds = %add_varint_item.exit, %88
  %.0101 = phi i32 [ %92, %88 ], [ %.08186, %add_varint_item.exit ]
  %.082100 = phi i64 [ %93, %88 ], [ %.sink.i88, %add_varint_item.exit ]
  %30 = load i32, ptr @hf_msg_addrv2_item, align 4
  %31 = tail call ptr @proto_tree_add_item(ptr noundef %8, i32 noundef %30, ptr noundef %0, i32 noundef %.0101, i32 noundef -1, i32 noundef 0)
  %32 = load i32, ptr @ett_addr_list, align 4
  %33 = tail call ptr @proto_item_add_subtree(ptr noundef %31, i32 noundef %32)
  %34 = load i32, ptr @hf_msg_addrv2_timestamp, align 4
  %35 = tail call ptr @proto_tree_add_item(ptr noundef %33, i32 noundef %34, ptr noundef %0, i32 noundef %.0101, i32 noundef 4, i32 noundef -2147483630)
  %36 = add i32 %.0101, 4
  %37 = tail call zeroext i8 @tvb_get_uint8(ptr noundef %0, i32 noundef %36)
  %38 = icmp ult i8 %37, -3
  br i1 %38, label %39, label %41

39:                                               ; preds = %.lr.ph
  %40 = zext i8 %37 to i64
  br label %get_varint.exit65

41:                                               ; preds = %.lr.ph
  %42 = add i32 %.0101, 5
  switch i8 %37, label %49 [
    i8 -3, label %43
    i8 -2, label %46
  ]

43:                                               ; preds = %41
  %44 = tail call zeroext i16 @tvb_get_letohs(ptr noundef %0, i32 noundef %42)
  %45 = zext i16 %44 to i64
  br label %get_varint.exit65

46:                                               ; preds = %41
  %47 = tail call i32 @tvb_get_letohl(ptr noundef %0, i32 noundef %42)
  %48 = zext i32 %47 to i64
  br label %get_varint.exit65

49:                                               ; preds = %41
  %50 = tail call i64 @tvb_get_letoh64(ptr noundef %0, i32 noundef %42)
  br label %get_varint.exit65

get_varint.exit65:                                ; preds = %39, %43, %46, %49
  %.1 = phi i32 [ 1, %39 ], [ 9, %49 ], [ 5, %46 ], [ 3, %43 ]
  %.sink.i64 = phi i64 [ %40, %39 ], [ %50, %49 ], [ %48, %46 ], [ %45, %43 ]
  %51 = load i32, ptr @hf_msg_addrv2_services, align 4
  %52 = load i32, ptr @ett_services, align 4
  %53 = tail call ptr @proto_tree_add_bitmask_value(ptr noundef %33, ptr noundef %0, i32 noundef %36, i32 noundef %51, i32 noundef %52, ptr noundef nonnull @services_hf_flags, i64 noundef %.sink.i64)
  tail call void @proto_item_set_len(ptr noundef %53, i32 noundef %.1)
  %54 = add i32 %.1, %36
  %55 = tail call zeroext i8 @tvb_get_uint8(ptr noundef %0, i32 noundef %54)
  %56 = load i32, ptr @hf_msg_addrv2_network, align 4
  %57 = tail call ptr @proto_tree_add_item(ptr noundef %33, i32 noundef %56, ptr noundef %0, i32 noundef %54, i32 noundef 1, i32 noundef -2147483648)
  %58 = add i32 %54, 1
  %59 = tail call zeroext i8 @tvb_get_uint8(ptr noundef %0, i32 noundef %58)
  %60 = icmp ult i8 %59, -3
  br i1 %60, label %61, label %63

61:                                               ; preds = %get_varint.exit65
  %62 = zext i8 %59 to i64
  br label %get_varint.exit67

63:                                               ; preds = %get_varint.exit65
  %64 = add i32 %54, 2
  switch i8 %59, label %71 [
    i8 -3, label %65
    i8 -2, label %68
  ]

65:                                               ; preds = %63
  %66 = tail call zeroext i16 @tvb_get_letohs(ptr noundef %0, i32 noundef %64)
  %67 = zext i16 %66 to i64
  br label %get_varint.exit67

68:                                               ; preds = %63
  %69 = tail call i32 @tvb_get_letohl(ptr noundef %0, i32 noundef %64)
  %70 = zext i32 %69 to i64
  br label %get_varint.exit67

71:                                               ; preds = %63
  %72 = tail call i64 @tvb_get_letoh64(ptr noundef %0, i32 noundef %64)
  br label %get_varint.exit67

get_varint.exit67:                                ; preds = %61, %65, %68, %71
  %.2 = phi i32 [ 1, %61 ], [ 9, %71 ], [ 5, %68 ], [ 3, %65 ]
  %.sink.i66 = phi i64 [ %62, %61 ], [ %72, %71 ], [ %70, %68 ], [ %67, %65 ]
  %73 = add i32 %.2, %58
  %74 = trunc i64 %.sink.i66 to i32
  switch i8 %55, label %85 [
    i8 1, label %75
    i8 2, label %80
  ]

75:                                               ; preds = %get_varint.exit67
  %76 = load i32, ptr @hf_msg_addrv2_address_ipv4, align 4
  %77 = tail call ptr @proto_tree_add_item(ptr noundef %33, i32 noundef %76, ptr noundef %0, i32 noundef %73, i32 noundef %74, i32 noundef 0)
  %.not63 = icmp eq i64 %.sink.i66, 4
  br i1 %.not63, label %88, label %78

78:                                               ; preds = %75
  %79 = tail call ptr @proto_tree_add_expert(ptr noundef %33, ptr noundef %1, ptr noundef nonnull @ei_bitcoin_address_length, ptr noundef %0, i32 noundef %73, i32 noundef %74)
  br label %88

80:                                               ; preds = %get_varint.exit67
  %81 = load i32, ptr @hf_msg_addrv2_address_ipv6, align 4
  %82 = tail call ptr @proto_tree_add_item(ptr noundef %33, i32 noundef %81, ptr noundef %0, i32 noundef %73, i32 noundef %74, i32 noundef 0)
  %.not62 = icmp eq i64 %.sink.i66, 16
  br i1 %.not62, label %88, label %83

83:                                               ; preds = %80
  %84 = tail call ptr @proto_tree_add_expert(ptr noundef %33, ptr noundef %1, ptr noundef nonnull @ei_bitcoin_address_length, ptr noundef %0, i32 noundef %73, i32 noundef %74)
  br label %88

85:                                               ; preds = %get_varint.exit67
  %86 = load i32, ptr @hf_msg_addrv2_address_other, align 4
  %87 = tail call ptr @proto_tree_add_item(ptr noundef %33, i32 noundef %86, ptr noundef %0, i32 noundef %73, i32 noundef %74, i32 noundef 0)
  br label %88

88:                                               ; preds = %80, %83, %75, %78, %85
  %.pre-phi = phi i32 [ 16, %80 ], [ %74, %83 ], [ 4, %75 ], [ %74, %78 ], [ %74, %85 ]
  %89 = add i32 %73, %.pre-phi
  %90 = load i32, ptr @hf_msg_addrv2_port, align 4
  %91 = tail call ptr @proto_tree_add_item(ptr noundef %33, i32 noundef %90, ptr noundef %0, i32 noundef %89, i32 noundef 2, i32 noundef 0)
  %92 = add i32 %89, 2
  tail call void @proto_item_set_end(ptr noundef %31, ptr noundef %0, i32 noundef %92)
  %93 = add i64 %.082100, -1
  %.not = icmp eq i64 %93, 0
  br i1 %.not, label %._crit_edge, label %.lr.ph, !llvm.loop !10

._crit_edge:                                      ; preds = %88, %add_varint_item.exit
  %.0.lcssa = phi i32 [ %.08186, %add_varint_item.exit ], [ %92, %88 ]
  ret i32 %.0.lcssa
}